; Function Attrs: nounwind uwtable
define internal fastcc ptr @_PySys_GetObject(ptr %.7640.val, ptr noundef %0) unnamed_addr #0 {
  %2 = alloca ptr, align 8
  %3 = icmp eq ptr %.7640.val, null
  br i1 %3, label %15, label %4

4:                                                ; preds = %1
  call void @llvm.lifetime.start.p0(i64 8, ptr nonnull %2) #15
  %5 = call i32 @PyDict_GetItemStringRef(ptr noundef nonnull %.7640.val, ptr noundef %0, ptr noundef nonnull %2) #15
  %.not = icmp eq i32 %5, 1
  br i1 %.not, label %6, label %14

6:                                                ; preds = %4
  %7 = load ptr, ptr %2, align 8, !tbaa !93
  %8 = load i32, ptr %7, align 8, !tbaa !94
  %.not.i = icmp sgt i32 %8, -1
  br i1 %.not.i, label %9, label %Py_DECREF.exit

9:                                                ; preds = %6
  %10 = add nsw i32 %8, -1
  store i32 %10, ptr %7, align 8, !tbaa !94
  %11 = icmp eq i32 %10, 0
  br i1 %11, label %12, label %Py_DECREF.exit

12:                                               ; preds = %9
  call void @_Py_Dealloc(ptr noundef nonnull %7) #15
  br label %Py_DECREF.exit

Py_DECREF.exit:                                   ; preds = %6, %9, %12
  %13 = load ptr, ptr %2, align 8, !tbaa !93
  br label %14

14:                                               ; preds = %4, %Py_DECREF.exit
  %.1 = phi ptr [ %13, %Py_DECREF.exit ], [ null, %4 ]
  call void @llvm.lifetime.end.p0(i64 8, ptr nonnull %2) #15
  br label %15

15:                                               ; preds = %1, %14
  %.0 = phi ptr [ %.1, %14 ], [ null, %1 ]
  ret ptr %.0
}